target datalayout = "e-m:e-p270:32:32-p271:32:32-p272:64:64-i64:64-i128:128-f80:128-n8:16:32:64-S128"
target triple = "x86_64-pc-linux-gnu"

%class.nmethod = type <{ %class.CodeBlob.base, [2 x i8], i64, i64, ptr, %union.anon, ptr, ptr, ptr, ptr, ptr, ptr, ptr, i16, i16, i32, i32, i32, i32, i32, i32, i32, i16, i16, i16, i16, i16, i16, i32, i32, i32, i32, i32, i8, i8, i8, i8, i8, i8, [2 x i8] }>
%class.CodeBlob.base = type <{ ptr, ptr, ptr, i32, i32, i32, i32, i32, i32, i16, i16, i8, i8 }>
%union.anon = type { ptr }
%class.ttyLocker = type { i64 }

@xtty = external global ptr, align 8
@tty = external global ptr, align 8
@LogCompilation = external global i8, align 1
@.str.44 = private unnamed_addr constant [30 x i8] c"make_not_entrant thread='%lu'\00", align 1
@.str.45 = private unnamed_addr constant [17 x i8] c"made not entrant\00", align 1
@PrintCompilation = external global i8, align 1

; Function Attrs: mustprogress nounwind uwtable
define linkonce_odr hidden noundef i32 @_ZNK7nmethod13osr_entry_bciEv(ptr noundef nonnull align 8 dereferenceable(214) %0) #1 comdat align 2 {
  %2 = alloca ptr, align 8
  store ptr %0, ptr %2, align 8
  %3 = load ptr, ptr %2, align 8
  %4 = getelementptr inbounds %class.nmethod, ptr %3, i32 0, i32 15
  %5 = load i32, ptr %4, align 4
  ret i32 %5
}

; Function Attrs: mustprogress nounwind uwtable
define linkonce_odr hidden noundef zeroext i1 @_ZNK7nmethod13is_osr_methodEv(ptr noundef nonnull align 8 dereferenceable(214) %0) #1 comdat align 2 {
  %2 = alloca ptr, align 8
  store ptr %0, ptr %2, align 8
  %3 = load ptr, ptr %2, align 8
  %4 = getelementptr inbounds %class.nmethod, ptr %3, i32 0, i32 15
  %5 = load i32, ptr %4, align 4
  %6 = icmp ne i32 %5, -1
  ret i1 %6
}

; Function Attrs: mustprogress nounwind uwtable
define linkonce_odr hidden noundef i32 @_ZNK7nmethod10comp_levelEv(ptr noundef nonnull align 8 dereferenceable(214) %0) #1 comdat align 2 {
  %2 = alloca ptr, align 8
  store ptr %0, ptr %2, align 8
  %3 = load ptr, ptr %2, align 8
  %4 = getelementptr inbounds %class.nmethod, ptr %3, i32 0, i32 33
  %5 = load i8, ptr %4, align 8
  %6 = sext i8 %5 to i32
  ret i32 %6
}

; Function Attrs: mustprogress nounwind uwtable
define linkonce_odr hidden noundef i32 @_ZNK7nmethod10compile_idEv(ptr noundef nonnull align 8 dereferenceable(214) %0) #1 comdat align 2 {
  %2 = alloca ptr, align 8
  store ptr %0, ptr %2, align 8
  %3 = load ptr, ptr %2, align 8
  %4 = getelementptr inbounds %class.nmethod, ptr %3, i32 0, i32 32
  %5 = load i32, ptr %4, align 4
  ret i32 %5
}

; Function Attrs: mustprogress nounwind uwtable
define linkonce_odr hidden noundef ptr @_ZNK7nmethod6methodEv(ptr noundef nonnull align 8 dereferenceable(214) %0) #1 comdat align 2 {
  %2 = alloca ptr, align 8
  store ptr %0, ptr %2, align 8
  %3 = load ptr, ptr %2, align 8
  %4 = getelementptr inbounds %class.nmethod, ptr %3, i32 0, i32 4
  %5 = load ptr, ptr %4, align 8
  ret ptr %5
}

; Function Attrs: mustprogress nounwind uwtable
define linkonce_odr hidden void @_ZN11CompileTask5printEP12outputStreamPK7nmethodPKcbb(ptr noundef %0, ptr noundef %1, ptr noundef %2, i1 noundef zeroext %3, i1 noundef zeroext %4) #1 comdat align 2 {
  %6 = alloca ptr, align 8
  %7 = alloca ptr, align 8
  %8 = alloca ptr, align 8
  %9 = alloca i8, align 1
  %10 = alloca i8, align 1
  store ptr %0, ptr %6, align 8
  store ptr %1, ptr %7, align 8
  store ptr %2, ptr %8, align 8
  %11 = zext i1 %3 to i8
  store i8 %11, ptr %9, align 1
  %12 = zext i1 %4 to i8
  store i8 %12, ptr %10, align 1
  %13 = load ptr, ptr %6, align 8
  %14 = load ptr, ptr %7, align 8
  %15 = call noundef ptr @_ZNK7nmethod6methodEv(ptr noundef nonnull align 8 dereferenceable(214) %14)
  %16 = load ptr, ptr %7, align 8
  %17 = call noundef i32 @_ZNK7nmethod10compile_idEv(ptr noundef nonnull align 8 dereferenceable(214) %16)
  %18 = load ptr, ptr %7, align 8
  %19 = call noundef i32 @_ZNK7nmethod10comp_levelEv(ptr noundef nonnull align 8 dereferenceable(214) %18)
  %20 = load ptr, ptr %7, align 8
  %21 = call noundef zeroext i1 @_ZNK7nmethod13is_osr_methodEv(ptr noundef nonnull align 8 dereferenceable(214) %20)
  %22 = load ptr, ptr %7, align 8
  %23 = call noundef zeroext i1 @_ZNK7nmethod13is_osr_methodEv(ptr noundef nonnull align 8 dereferenceable(214) %22)
  br i1 %23, label %24, label %27

24:                                               ; preds = %5
  %25 = load ptr, ptr %7, align 8
  %26 = call noundef i32 @_ZNK7nmethod13osr_entry_bciEv(ptr noundef nonnull align 8 dereferenceable(214) %25)
  br label %28

27:                                               ; preds = %5
  br label %28

28:                                               ; preds = %27, %24
  %29 = phi i32 [ %26, %24 ], [ -1, %27 ]
  %30 = load ptr, ptr %8, align 8
  %31 = load i8, ptr %9, align 1
  %32 = trunc i8 %31 to i1
  %33 = load i8, ptr %10, align 1
  %34 = trunc i8 %33 to i1
  call void @_ZN11CompileTask10print_implEP12outputStreamP6MethodiibibPKcbbll(ptr noundef %13, ptr noundef %15, i32 noundef %17, i32 noundef %19, i1 noundef zeroext %21, i32 noundef %29, i1 noundef zeroext false, ptr noundef %30, i1 noundef zeroext %32, i1 noundef zeroext %34, i64 noundef 0, i64 noundef 0)
  ret void
}

; Function Attrs: mustprogress nounwind uwtable
define hidden void @_ZNK7nmethod8print_onEP12outputStreamPKc(ptr noundef nonnull align 8 dereferenceable(214) %0, ptr noundef %1, ptr noundef %2) #1 align 2 {
  %4 = alloca ptr, align 8
  %5 = alloca ptr, align 8
  %6 = alloca ptr, align 8
  %7 = alloca %class.ttyLocker, align 8
  store ptr %0, ptr %4, align 8
  store ptr %1, ptr %5, align 8
  store ptr %2, ptr %6, align 8
  %8 = load ptr, ptr %4, align 8
  %9 = load ptr, ptr %5, align 8
  %10 = icmp ne ptr %9, null
  br i1 %10, label %11, label %14

11:                                               ; preds = %3
  call void @_ZN9ttyLockerC2Ev(ptr noundef nonnull align 8 dereferenceable(8) %7)
  %12 = load ptr, ptr %5, align 8
  %13 = load ptr, ptr %6, align 8
  call void @_ZN11CompileTask5printEP12outputStreamPK7nmethodPKcbb(ptr noundef %12, ptr noundef %8, ptr noundef %13, i1 noundef zeroext false, i1 noundef zeroext true)
  call void @_ZN9ttyLockerD2Ev(ptr noundef nonnull align 8 dereferenceable(8) %7) #7
  br label %14

14:                                               ; preds = %11, %3
  ret void
}

; Function Attrs: mustprogress nounwind uwtable
define linkonce_odr hidden void @_ZN9ttyLockerD2Ev(ptr noundef nonnull align 8 dereferenceable(8) %0) unnamed_addr #1 comdat align 2 {
  %2 = alloca ptr, align 8
  store ptr %0, ptr %2, align 8
  %3 = load ptr, ptr %2, align 8
  %4 = getelementptr inbounds %class.ttyLocker, ptr %3, i32 0, i32 0
  %5 = load i64, ptr %4, align 8
  call void @_ZN9ttyLocker11release_ttyEl(i64 noundef %5)
  ret void
}

; Function Attrs: mustprogress nounwind uwtable
define linkonce_odr hidden void @_ZN9ttyLockerC2Ev(ptr noundef nonnull align 8 dereferenceable(8) %0) unnamed_addr #1 comdat align 2 {
  %2 = alloca ptr, align 8
  store ptr %0, ptr %2, align 8
  %3 = load ptr, ptr %2, align 8
  %4 = call noundef i64 @_ZN9ttyLocker8hold_ttyEv()
  %5 = getelementptr inbounds %class.ttyLocker, ptr %3, i32 0, i32 0
  store i64 %4, ptr %5, align 8
  ret void
}

; Function Attrs: mustprogress nounwind uwtable
define hidden void @_ZNK7nmethod16log_state_changeEv(ptr noundef nonnull align 8 dereferenceable(214) %0) #1 align 2 {
  %2 = alloca ptr, align 8
  %3 = alloca %class.ttyLocker, align 8
  store ptr %0, ptr %2, align 8
  %4 = load ptr, ptr %2, align 8
  %5 = load i8, ptr @LogCompilation, align 1
  %6 = trunc i8 %5 to i1
  br i1 %6, label %7, label %17

7:                                                ; preds = %1
  %8 = load ptr, ptr @xtty, align 8
  %9 = icmp ne ptr %8, null
  br i1 %9, label %10, label %16

10:                                               ; preds = %7
  call void @_ZN9ttyLockerC2Ev(ptr noundef nonnull align 8 dereferenceable(8) %3)
  %11 = load ptr, ptr @xtty, align 8
  %12 = call noundef i64 @_ZN2os17current_thread_idEv()
  call void (ptr, ptr, ...) @_ZN9xmlStream10begin_elemEPKcz(ptr noundef nonnull align 8 dereferenceable(152) %11, ptr noundef @.str.44, i64 noundef %12)
  %13 = load ptr, ptr @xtty, align 8
  call void @_ZNK7nmethod12log_identityEP9xmlStream(ptr noundef nonnull align 8 dereferenceable(214) %4, ptr noundef %13)
  %14 = load ptr, ptr @xtty, align 8
  call void @_ZN9xmlStream5stampEv(ptr noundef nonnull align 8 dereferenceable(152) %14)
  %15 = load ptr, ptr @xtty, align 8
  call void @_ZN9xmlStream8end_elemEv(ptr noundef nonnull align 8 dereferenceable(152) %15)
  call void @_ZN9ttyLockerD2Ev(ptr noundef nonnull align 8 dereferenceable(8) %3) #7
  br label %16

16:                                               ; preds = %10, %7
  br label %17

17:                                               ; preds = %16, %1
  call void @_ZN11CompileTask8print_ulEPK7nmethodPKc(ptr noundef %4, ptr noundef @.str.45)
  %18 = load i8, ptr @PrintCompilation, align 1
  %19 = trunc i8 %18 to i1
  br i1 %19, label %20, label %22

20:                                               ; preds = %17
  %21 = load ptr, ptr @tty, align 8
  call void @_ZNK7nmethod8print_onEP12outputStreamPKc(ptr noundef nonnull align 8 dereferenceable(214) %4, ptr noundef %21, ptr noundef @.str.45)
  br label %22

22:                                               ; preds = %20, %17
  ret void
}