; Function Attrs: mustprogress nounwind uwtable
define hidden void @_ZNK7nmethod16log_state_changeEv(ptr noundef nonnull align 8 dereferenceable(214) %0) local_unnamed_addr #0 align 2 {
  %2 = load i8, ptr @LogCompilation, align 1
  %3 = trunc i8 %2 to i1
  %4 = load ptr, ptr @xtty, align 8
  %5 = icmp ne ptr %4, null
  %or.cond = select i1 %3, i1 %5, i1 false
  br i1 %or.cond, label %6, label %13

6:                                                ; preds = %1
  %7 = tail call noundef i64 @_ZN9ttyLocker8hold_ttyEv() #23
  %8 = load ptr, ptr @xtty, align 8
  %9 = tail call noundef i64 @_ZN2os17current_thread_idEv() #23
  tail call void (ptr, ptr, ...) @_ZN9xmlStream10begin_elemEPKcz(ptr noundef nonnull align 8 dereferenceable(152) %8, ptr noundef nonnull @.str.44, i64 noundef %9) #23
  %10 = load ptr, ptr @xtty, align 8
  tail call void @_ZNK7nmethod12log_identityEP9xmlStream(ptr noundef nonnull align 8 dereferenceable(214) %0, ptr noundef %10)
  %11 = load ptr, ptr @xtty, align 8
  tail call void @_ZN9xmlStream5stampEv(ptr noundef nonnull align 8 dereferenceable(152) %11) #23
  %12 = load ptr, ptr @xtty, align 8
  tail call void @_ZN9xmlStream8end_elemEv(ptr noundef nonnull align 8 dereferenceable(152) %12) #23
  tail call void @_ZN9ttyLocker11release_ttyEl(i64 noundef %7) #23
  br label %13

13:                                               ; preds = %6, %1
  tail call void @_ZN11CompileTask8print_ulEPK7nmethodPKc(ptr noundef nonnull %0, ptr noundef nonnull @.str.45) #23
  %14 = load i8, ptr @PrintCompilation, align 1
  %15 = trunc i8 %14 to i1
  br i1 %15, label %16, label %_ZNK7nmethod8print_onEP12outputStreamPKc.exit

16:                                               ; preds = %13
  %17 = load ptr, ptr @tty, align 8
  %.not.i = icmp eq ptr %17, null
  br i1 %.not.i, label %_ZNK7nmethod8print_onEP12outputStreamPKc.exit, label %18

18:                                               ; preds = %16
  %19 = tail call noundef i64 @_ZN9ttyLocker8hold_ttyEv() #23
  %20 = getelementptr inbounds i8, ptr %0, i64 72
  %21 = load ptr, ptr %20, align 8
  %22 = getelementptr inbounds i8, ptr %0, i64 204
  %23 = load i32, ptr %22, align 4
  %24 = getelementptr inbounds i8, ptr %0, i64 208
  %25 = load i8, ptr %24, align 8
  %26 = sext i8 %25 to i32
  %27 = getelementptr inbounds i8, ptr %0, i64 148
  %28 = load i32, ptr %27, align 4
  %29 = icmp ne i32 %28, -1
  tail call void @_ZN11CompileTask10print_implEP12outputStreamP6MethodiibibPKcbbll(ptr noundef nonnull %17, ptr noundef %21, i32 noundef %23, i32 noundef %26, i1 noundef zeroext %29, i32 noundef %28, i1 noundef zeroext false, ptr noundef nonnull @.str.45, i1 noundef zeroext false, i1 noundef zeroext true, i64 noundef 0, i64 noundef 0) #23
  tail call void @_ZN9ttyLocker11release_ttyEl(i64 noundef %19) #23
  br label %_ZNK7nmethod8print_onEP12outputStreamPKc.exit

_ZNK7nmethod8print_onEP12outputStreamPKc.exit:    ; preds = %18, %16, %13
  ret void
}